target datalayout = "e-m:e-p270:32:32-p271:32:32-p272:64:64-i64:64-i128:128-f80:128-n8:16:32:64-S128"
target triple = "x86_64-pc-linux-gnu"

%"class.arrow::compute::SortKey" = type { %"class.arrow::FieldRef", i32, [4 x i8] }
%"class.arrow::FieldRef" = type { %"class.std::variant" }
%"class.std::variant" = type { %"struct.std::__detail::__variant::_Variant_base.base", [7 x i8] }
%"struct.std::__detail::__variant::_Variant_base.base" = type { %"struct.std::__detail::__variant::_Move_assign_base.base" }
%"struct.std::__detail::__variant::_Move_assign_base.base" = type { %"struct.std::__detail::__variant::_Copy_assign_base.base" }
%"struct.std::__detail::__variant::_Copy_assign_base.base" = type { %"struct.std::__detail::__variant::_Move_ctor_base.base" }
%"struct.std::__detail::__variant::_Move_ctor_base.base" = type { %"struct.std::__detail::__variant::_Copy_ctor_base.base" }
%"struct.std::__detail::__variant::_Copy_ctor_base.base" = type { %"struct.std::__detail::__variant::_Variant_storage.base" }
%"struct.std::__detail::__variant::_Variant_storage.base" = type { %"union.std::__detail::__variant::_Variadic_union", i8 }
%"union.std::__detail::__variant::_Variadic_union" = type { %"union.std::__detail::__variant::_Variadic_union.2" }
%"union.std::__detail::__variant::_Variadic_union.2" = type { %"struct.std::__detail::__variant::_Uninitialized.3" }
%"struct.std::__detail::__variant::_Uninitialized.3" = type { %"struct.__gnu_cxx::__aligned_membuf.4" }
%"struct.__gnu_cxx::__aligned_membuf.4" = type { [32 x i8] }
%"class.arrow::compute::Ordering" = type <{ %"class.std::vector", i32, i8, [3 x i8] }>
%"class.std::vector" = type { %"struct.std::_Vector_base" }
%"struct.std::_Vector_base" = type { %"struct.std::_Vector_base<arrow::compute::SortKey, std::allocator<arrow::compute::SortKey>>::_Vector_impl" }
%"struct.std::_Vector_base<arrow::compute::SortKey, std::allocator<arrow::compute::SortKey>>::_Vector_impl" = type { %"struct.std::_Vector_base<arrow::compute::SortKey, std::allocator<arrow::compute::SortKey>>::_Vector_impl_data" }
%"struct.std::_Vector_base<arrow::compute::SortKey, std::allocator<arrow::compute::SortKey>>::_Vector_impl_data" = type { ptr, ptr, ptr }
%"class.__gnu_cxx::__normal_iterator" = type { ptr }
%class.anon = type { ptr, ptr }

; Function Attrs: mustprogress uwtable
define linkonce_odr void @_ZNSt8__detail9__variant15__raw_idx_visitIZSteqIJN5arrow9FieldPathENSt7__cxx1112basic_stringIcSt11char_traitsIcESaIcEEESt6vectorINS3_8FieldRefESaISC_EEEEbRKSt7variantIJDpT_EESK_EUlOT_T0_E_JRKSF_IJS4_SA_SE_EEEEEvSM_DpOT0_(ptr noundef nonnull align 8 dereferenceable(16) %0, ptr noundef nonnull align 8 dereferenceable(33) %1) #0 comdat {
  %3 = alloca ptr, align 8
  %4 = alloca ptr, align 8
  store ptr %0, ptr %3, align 8, !tbaa !70
  store ptr %1, ptr %4, align 8, !tbaa !66
  %5 = load ptr, ptr %3, align 8, !tbaa !70
  %6 = load ptr, ptr %4, align 8, !tbaa !66
  call void @_ZSt10__do_visitINSt8__detail9__variant20__variant_idx_cookieEZSteqIJN5arrow9FieldPathENSt7__cxx1112basic_stringIcSt11char_traitsIcESaIcEEESt6vectorINS4_8FieldRefESaISD_EEEEbRKSt7variantIJDpT_EESL_EUlOT_T0_E_JRKSG_IJS5_SB_SF_EEEEDcOSO_DpOT1_(ptr noundef nonnull align 8 dereferenceable(16) %5, ptr noundef nonnull align 8 dereferenceable(33) %6)
  ret void
}

; Function Attrs: mustprogress uwtable
define linkonce_odr noundef zeroext i1 @_ZSteqIJN5arrow9FieldPathENSt7__cxx1112basic_stringIcSt11char_traitsIcESaIcEEESt6vectorINS0_8FieldRefESaIS9_EEEEbRKSt7variantIJDpT_EESH_(ptr noundef nonnull align 8 dereferenceable(33) %0, ptr noundef nonnull align 8 dereferenceable(33) %1) #0 comdat {
  %3 = alloca ptr, align 8
  %4 = alloca ptr, align 8
  %5 = alloca i8, align 1
  %6 = alloca %class.anon, align 8
  store ptr %0, ptr %3, align 8, !tbaa !66
  store ptr %1, ptr %4, align 8, !tbaa !66
  call void @llvm.lifetime.start.p0(i64 1, ptr %5) #13
  store i8 1, ptr %5, align 1, !tbaa !53
  call void @llvm.lifetime.start.p0(i64 16, ptr %6) #13
  %7 = getelementptr inbounds nuw %class.anon, ptr %6, i32 0, i32 0
  store ptr %5, ptr %7, align 8, !tbaa !68
  %8 = getelementptr inbounds nuw %class.anon, ptr %6, i32 0, i32 1
  %9 = load ptr, ptr %3, align 8, !tbaa !66
  store ptr %9, ptr %8, align 8, !tbaa !66
  %10 = load ptr, ptr %4, align 8, !tbaa !66
  call void @_ZNSt8__detail9__variant15__raw_idx_visitIZSteqIJN5arrow9FieldPathENSt7__cxx1112basic_stringIcSt11char_traitsIcESaIcEEESt6vectorINS3_8FieldRefESaISC_EEEEbRKSt7variantIJDpT_EESK_EUlOT_T0_E_JRKSF_IJS4_SA_SE_EEEEEvSM_DpOT0_(ptr noundef nonnull align 8 dereferenceable(16) %6, ptr noundef nonnull align 8 dereferenceable(33) %10)
  call void @llvm.lifetime.end.p0(i64 16, ptr %6) #13
  %11 = load i8, ptr %5, align 1, !tbaa !53, !range !42, !noundef !43
  %12 = trunc i8 %11 to i1
  call void @llvm.lifetime.end.p0(i64 1, ptr %5) #13
  ret i1 %12
}

; Function Attrs: mustprogress uwtable
define linkonce_odr noundef zeroext i1 @_ZNK5arrow8FieldRef6EqualsERKS0_(ptr noundef nonnull align 8 dereferenceable(40) %0, ptr noundef nonnull align 8 dereferenceable(40) %1) #0 comdat align 2 {
  %3 = alloca ptr, align 8
  %4 = alloca ptr, align 8
  store ptr %0, ptr %3, align 8, !tbaa !19
  store ptr %1, ptr %4, align 8, !tbaa !19
  %5 = load ptr, ptr %3, align 8
  %6 = getelementptr inbounds nuw %"class.arrow::FieldRef", ptr %5, i32 0, i32 0
  %7 = load ptr, ptr %4, align 8, !tbaa !19
  %8 = getelementptr inbounds nuw %"class.arrow::FieldRef", ptr %7, i32 0, i32 0
  %9 = call noundef zeroext i1 @_ZSteqIJN5arrow9FieldPathENSt7__cxx1112basic_stringIcSt11char_traitsIcESaIcEEESt6vectorINS0_8FieldRefESaIS9_EEEEbRKSt7variantIJDpT_EESH_(ptr noundef nonnull align 8 dereferenceable(33) %6, ptr noundef nonnull align 8 dereferenceable(33) %8)
  ret i1 %9
}

; Function Attrs: mustprogress uwtable
define linkonce_odr noundef zeroext i1 @_ZN5arrow4utileqERKNS_8FieldRefES3_(ptr noundef nonnull align 8 dereferenceable(40) %0, ptr noundef nonnull align 8 dereferenceable(40) %1) #0 comdat {
  %3 = alloca ptr, align 8
  %4 = alloca ptr, align 8
  store ptr %0, ptr %3, align 8, !tbaa !19
  store ptr %1, ptr %4, align 8, !tbaa !19
  %5 = load ptr, ptr %3, align 8, !tbaa !19
  %6 = load ptr, ptr %4, align 8, !tbaa !19
  %7 = call noundef zeroext i1 @_ZNK5arrow8FieldRef6EqualsERKS0_(ptr noundef nonnull align 8 dereferenceable(40) %5, ptr noundef nonnull align 8 dereferenceable(40) %6)
  ret i1 %7
}

; Function Attrs: mustprogress uwtable
define noundef zeroext i1 @_ZNK5arrow7compute7SortKey6EqualsERKS1_(ptr noundef nonnull align 8 dereferenceable(44) %0, ptr noundef nonnull align 8 dereferenceable(44) %1) #0 align 2 {
  %3 = alloca ptr, align 8
  %4 = alloca ptr, align 8
  store ptr %0, ptr %3, align 8, !tbaa !3
  store ptr %1, ptr %4, align 8, !tbaa !3
  %5 = load ptr, ptr %3, align 8
  %6 = getelementptr inbounds nuw %"class.arrow::compute::SortKey", ptr %5, i32 0, i32 0
  %7 = load ptr, ptr %4, align 8, !tbaa !3
  %8 = getelementptr inbounds nuw %"class.arrow::compute::SortKey", ptr %7, i32 0, i32 0
  %9 = call noundef zeroext i1 @_ZN5arrow4utileqERKNS_8FieldRefES3_(ptr noundef nonnull align 8 dereferenceable(40) %6, ptr noundef nonnull align 8 dereferenceable(40) %8)
  br i1 %9, label %10, label %17

10:                                               ; preds = %2
  %11 = getelementptr inbounds nuw %"class.arrow::compute::SortKey", ptr %5, i32 0, i32 1
  %12 = load i32, ptr %11, align 8, !tbaa !8
  %13 = load ptr, ptr %4, align 8, !tbaa !3
  %14 = getelementptr inbounds nuw %"class.arrow::compute::SortKey", ptr %13, i32 0, i32 1
  %15 = load i32, ptr %14, align 8, !tbaa !8
  %16 = icmp eq i32 %12, %15
  br label %17

17:                                               ; preds = %10, %2
  %18 = phi i1 [ false, %2 ], [ %16, %10 ]
  ret i1 %18
}

; Function Attrs: mustprogress nounwind uwtable
define linkonce_odr noundef nonnull align 8 dereferenceable(8) ptr @_ZNK9__gnu_cxx17__normal_iteratorIPKN5arrow7compute7SortKeyESt6vectorIS3_SaIS3_EEE4baseEv(ptr noundef nonnull align 8 dereferenceable(8) %0) #4 comdat align 2 {
  %2 = alloca ptr, align 8
  store ptr %0, ptr %2, align 8, !tbaa !54
  %3 = load ptr, ptr %2, align 8
  %4 = getelementptr inbounds nuw %"class.__gnu_cxx::__normal_iterator", ptr %3, i32 0, i32 0
  ret ptr %4
}

; Function Attrs: mustprogress nounwind uwtable
define linkonce_odr void @_ZN9__gnu_cxx17__normal_iteratorIPKN5arrow7compute7SortKeyESt6vectorIS3_SaIS3_EEEC2ERKS5_(ptr noundef nonnull align 8 dereferenceable(8) %0, ptr noundef nonnull align 8 dereferenceable(8) %1) unnamed_addr #4 comdat align 2 {
  %3 = alloca ptr, align 8
  %4 = alloca ptr, align 8
  store ptr %0, ptr %3, align 8, !tbaa !54
  store ptr %1, ptr %4, align 8, !tbaa !200
  %5 = load ptr, ptr %3, align 8
  %6 = getelementptr inbounds nuw %"class.__gnu_cxx::__normal_iterator", ptr %5, i32 0, i32 0
  %7 = load ptr, ptr %4, align 8, !tbaa !200
  %8 = load ptr, ptr %7, align 8, !tbaa !3
  store ptr %8, ptr %6, align 8, !tbaa !56
  ret void
}

; Function Attrs: mustprogress uwtable
define linkonce_odr noundef zeroext i1 @_ZN5arrow4utileqERKNS_7compute7SortKeyES4_(ptr noundef nonnull align 8 dereferenceable(44) %0, ptr noundef nonnull align 8 dereferenceable(44) %1) #0 comdat {
  %3 = alloca ptr, align 8
  %4 = alloca ptr, align 8
  store ptr %0, ptr %3, align 8, !tbaa !3
  store ptr %1, ptr %4, align 8, !tbaa !3
  %5 = load ptr, ptr %3, align 8, !tbaa !3
  %6 = load ptr, ptr %4, align 8, !tbaa !3
  %7 = call noundef zeroext i1 @_ZNK5arrow7compute7SortKey6EqualsERKS1_(ptr noundef nonnull align 8 dereferenceable(44) %5, ptr noundef nonnull align 8 dereferenceable(44) %6)
  ret i1 %7
}

; Function Attrs: inlinehint mustprogress nounwind uwtable
define linkonce_odr noundef zeroext i1 @_ZN9__gnu_cxxeqIPKN5arrow7compute7SortKeyESt6vectorIS3_SaIS3_EEEEbRKNS_17__normal_iteratorIT_T0_EESE_(ptr noundef nonnull align 8 dereferenceable(8) %0, ptr noundef nonnull align 8 dereferenceable(8) %1) #5 comdat {
  %3 = alloca ptr, align 8
  %4 = alloca ptr, align 8
  store ptr %0, ptr %3, align 8, !tbaa !54
  store ptr %1, ptr %4, align 8, !tbaa !54
  %5 = load ptr, ptr %3, align 8, !tbaa !54
  %6 = call noundef nonnull align 8 dereferenceable(8) ptr @_ZNK9__gnu_cxx17__normal_iteratorIPKN5arrow7compute7SortKeyESt6vectorIS3_SaIS3_EEE4baseEv(ptr noundef nonnull align 8 dereferenceable(8) %5) #13
  %7 = load ptr, ptr %6, align 8, !tbaa !3
  %8 = load ptr, ptr %4, align 8, !tbaa !54
  %9 = call noundef nonnull align 8 dereferenceable(8) ptr @_ZNK9__gnu_cxx17__normal_iteratorIPKN5arrow7compute7SortKeyESt6vectorIS3_SaIS3_EEE4baseEv(ptr noundef nonnull align 8 dereferenceable(8) %8) #13
  %10 = load ptr, ptr %9, align 8, !tbaa !3
  %11 = icmp eq ptr %7, %10
  ret i1 %11
}

; Function Attrs: mustprogress nounwind uwtable
define linkonce_odr ptr @_ZNKSt6vectorIN5arrow7compute7SortKeyESaIS2_EE3endEv(ptr noundef nonnull align 8 dereferenceable(24) %0) #4 comdat align 2 {
  %2 = alloca %"class.__gnu_cxx::__normal_iterator", align 8
  %3 = alloca ptr, align 8
  store ptr %0, ptr %3, align 8, !tbaa !49
  %4 = load ptr, ptr %3, align 8
  %5 = getelementptr inbounds nuw %"struct.std::_Vector_base", ptr %4, i32 0, i32 0
  %6 = getelementptr inbounds nuw %"struct.std::_Vector_base<arrow::compute::SortKey, std::allocator<arrow::compute::SortKey>>::_Vector_impl_data", ptr %5, i32 0, i32 1
  call void @_ZN9__gnu_cxx17__normal_iteratorIPKN5arrow7compute7SortKeyESt6vectorIS3_SaIS3_EEEC2ERKS5_(ptr noundef nonnull align 8 dereferenceable(8) %2, ptr noundef nonnull align 8 dereferenceable(8) %6) #13
  %7 = getelementptr inbounds nuw %"class.__gnu_cxx::__normal_iterator", ptr %2, i32 0, i32 0
  %8 = load ptr, ptr %7, align 8
  ret ptr %8
}

; Function Attrs: mustprogress nounwind uwtable
define linkonce_odr ptr @_ZNKSt6vectorIN5arrow7compute7SortKeyESaIS2_EE5beginEv(ptr noundef nonnull align 8 dereferenceable(24) %0) #4 comdat align 2 {
  %2 = alloca %"class.__gnu_cxx::__normal_iterator", align 8
  %3 = alloca ptr, align 8
  store ptr %0, ptr %3, align 8, !tbaa !49
  %4 = load ptr, ptr %3, align 8
  %5 = getelementptr inbounds nuw %"struct.std::_Vector_base", ptr %4, i32 0, i32 0
  %6 = getelementptr inbounds nuw %"struct.std::_Vector_base<arrow::compute::SortKey, std::allocator<arrow::compute::SortKey>>::_Vector_impl_data", ptr %5, i32 0, i32 0
  call void @_ZN9__gnu_cxx17__normal_iteratorIPKN5arrow7compute7SortKeyESt6vectorIS3_SaIS3_EEEC2ERKS5_(ptr noundef nonnull align 8 dereferenceable(8) %2, ptr noundef nonnull align 8 dereferenceable(8) %6) #13
  %7 = getelementptr inbounds nuw %"class.__gnu_cxx::__normal_iterator", ptr %2, i32 0, i32 0
  %8 = load ptr, ptr %7, align 8
  ret ptr %8
}

; Function Attrs: mustprogress uwtable
define linkonce_odr noundef zeroext i1 @_ZN5arrow4utilneERKNS_7compute7SortKeyES4_(ptr noundef nonnull align 8 dereferenceable(44) %0, ptr noundef nonnull align 8 dereferenceable(44) %1) #0 comdat {
  %3 = alloca ptr, align 8
  %4 = alloca ptr, align 8
  store ptr %0, ptr %3, align 8, !tbaa !3
  store ptr %1, ptr %4, align 8, !tbaa !3
  %5 = load ptr, ptr %3, align 8, !tbaa !3
  %6 = load ptr, ptr %4, align 8, !tbaa !3
  %7 = call noundef zeroext i1 @_ZN5arrow4utileqERKNS_7compute7SortKeyES4_(ptr noundef nonnull align 8 dereferenceable(44) %5, ptr noundef nonnull align 8 dereferenceable(44) %6)
  %8 = xor i1 %7, true
  ret i1 %8
}

; Function Attrs: mustprogress nounwind uwtable
define linkonce_odr noundef nonnull align 8 dereferenceable(44) ptr @_ZNKSt6vectorIN5arrow7compute7SortKeyESaIS2_EEixEm(ptr noundef nonnull align 8 dereferenceable(24) %0, i64 noundef %1) #4 comdat align 2 {
  %3 = alloca ptr, align 8
  %4 = alloca i64, align 8
  store ptr %0, ptr %3, align 8, !tbaa !49
  store i64 %1, ptr %4, align 8, !tbaa !45
  %5 = load ptr, ptr %3, align 8
  %6 = getelementptr inbounds nuw %"struct.std::_Vector_base", ptr %5, i32 0, i32 0
  %7 = getelementptr inbounds nuw %"struct.std::_Vector_base<arrow::compute::SortKey, std::allocator<arrow::compute::SortKey>>::_Vector_impl_data", ptr %6, i32 0, i32 0
  %8 = load ptr, ptr %7, align 8, !tbaa !52
  %9 = load i64, ptr %4, align 8, !tbaa !45
  %10 = getelementptr inbounds nuw %"class.arrow::compute::SortKey", ptr %8, i64 %9
  ret ptr %10
}

; Function Attrs: mustprogress nounwind uwtable
define linkonce_odr noundef i64 @_ZNKSt6vectorIN5arrow7compute7SortKeyESaIS2_EE4sizeEv(ptr noundef nonnull align 8 dereferenceable(24) %0) #4 comdat align 2 {
  %2 = alloca ptr, align 8
  store ptr %0, ptr %2, align 8, !tbaa !49
  %3 = load ptr, ptr %2, align 8
  %4 = getelementptr inbounds nuw %"struct.std::_Vector_base", ptr %3, i32 0, i32 0
  %5 = getelementptr inbounds nuw %"struct.std::_Vector_base<arrow::compute::SortKey, std::allocator<arrow::compute::SortKey>>::_Vector_impl_data", ptr %4, i32 0, i32 1
  %6 = load ptr, ptr %5, align 8, !tbaa !51
  %7 = getelementptr inbounds nuw %"struct.std::_Vector_base", ptr %3, i32 0, i32 0
  %8 = getelementptr inbounds nuw %"struct.std::_Vector_base<arrow::compute::SortKey, std::allocator<arrow::compute::SortKey>>::_Vector_impl_data", ptr %7, i32 0, i32 0
  %9 = load ptr, ptr %8, align 8, !tbaa !52
  %10 = ptrtoint ptr %6 to i64
  %11 = ptrtoint ptr %9 to i64
  %12 = sub i64 %10, %11
  %13 = sdiv exact i64 %12, 48
  ret i64 %13
}

; Function Attrs: mustprogress nounwind uwtable
define linkonce_odr noundef zeroext i1 @_ZNKSt6vectorIN5arrow7compute7SortKeyESaIS2_EE5emptyEv(ptr noundef nonnull align 8 dereferenceable(24) %0) #4 comdat align 2 {
  %2 = alloca ptr, align 8
  %3 = alloca %"class.__gnu_cxx::__normal_iterator", align 8
  %4 = alloca %"class.__gnu_cxx::__normal_iterator", align 8
  store ptr %0, ptr %2, align 8, !tbaa !49
  %5 = load ptr, ptr %2, align 8
  call void @llvm.lifetime.start.p0(i64 8, ptr %3) #13
  %6 = call ptr @_ZNKSt6vectorIN5arrow7compute7SortKeyESaIS2_EE5beginEv(ptr noundef nonnull align 8 dereferenceable(24) %5) #13
  %7 = getelementptr inbounds nuw %"class.__gnu_cxx::__normal_iterator", ptr %3, i32 0, i32 0
  store ptr %6, ptr %7, align 8
  call void @llvm.lifetime.start.p0(i64 8, ptr %4) #13
  %8 = call ptr @_ZNKSt6vectorIN5arrow7compute7SortKeyESaIS2_EE3endEv(ptr noundef nonnull align 8 dereferenceable(24) %5) #13
  %9 = getelementptr inbounds nuw %"class.__gnu_cxx::__normal_iterator", ptr %4, i32 0, i32 0
  store ptr %8, ptr %9, align 8
  %10 = call noundef zeroext i1 @_ZN9__gnu_cxxeqIPKN5arrow7compute7SortKeyESt6vectorIS3_SaIS3_EEEEbRKNS_17__normal_iteratorIT_T0_EESE_(ptr noundef nonnull align 8 dereferenceable(8) %3, ptr noundef nonnull align 8 dereferenceable(8) %4) #13
  call void @llvm.lifetime.end.p0(i64 8, ptr %4) #13
  call void @llvm.lifetime.end.p0(i64 8, ptr %3) #13
  ret i1 %10
}

; Function Attrs: mustprogress uwtable
define noundef zeroext i1 @_ZNK5arrow7compute8Ordering12IsSuborderOfERKS1_(ptr noundef nonnull align 8 dereferenceable(29) %0, ptr noundef nonnull align 8 dereferenceable(29) %1) #0 align 2 {
  %3 = alloca i1, align 1
  %4 = alloca ptr, align 8
  %5 = alloca ptr, align 8
  %6 = alloca i64, align 8
  %7 = alloca i32, align 4
  store ptr %0, ptr %4, align 8, !tbaa !32
  store ptr %1, ptr %5, align 8, !tbaa !32
  %8 = load ptr, ptr %4, align 8
  %9 = getelementptr inbounds nuw %"class.arrow::compute::Ordering", ptr %8, i32 0, i32 0
  %10 = call noundef zeroext i1 @_ZNKSt6vectorIN5arrow7compute7SortKeyESaIS2_EE5emptyEv(ptr noundef nonnull align 8 dereferenceable(24) %9) #13
  br i1 %10, label %11, label %16

11:                                               ; preds = %2
  %12 = getelementptr inbounds nuw %"class.arrow::compute::Ordering", ptr %8, i32 0, i32 2
  %13 = load i8, ptr %12, align 4, !tbaa !34, !range !42, !noundef !43
  %14 = trunc i8 %13 to i1
  %15 = xor i1 %14, true
  store i1 %15, ptr %3, align 1
  br label %56

16:                                               ; preds = %2
  %17 = getelementptr inbounds nuw %"class.arrow::compute::Ordering", ptr %8, i32 0, i32 1
  %18 = load i32, ptr %17, align 8, !tbaa !44
  %19 = load ptr, ptr %5, align 8, !tbaa !32
  %20 = getelementptr inbounds nuw %"class.arrow::compute::Ordering", ptr %19, i32 0, i32 1
  %21 = load i32, ptr %20, align 8, !tbaa !44
  %22 = icmp ne i32 %18, %21
  br i1 %22, label %23, label %24

23:                                               ; preds = %16
  store i1 false, ptr %3, align 1
  br label %56

24:                                               ; preds = %16
  %25 = getelementptr inbounds nuw %"class.arrow::compute::Ordering", ptr %8, i32 0, i32 0
  %26 = call noundef i64 @_ZNKSt6vectorIN5arrow7compute7SortKeyESaIS2_EE4sizeEv(ptr noundef nonnull align 8 dereferenceable(24) %25) #13
  %27 = load ptr, ptr %5, align 8, !tbaa !32
  %28 = getelementptr inbounds nuw %"class.arrow::compute::Ordering", ptr %27, i32 0, i32 0
  %29 = call noundef i64 @_ZNKSt6vectorIN5arrow7compute7SortKeyESaIS2_EE4sizeEv(ptr noundef nonnull align 8 dereferenceable(24) %28) #13
  %30 = icmp ugt i64 %26, %29
  br i1 %30, label %31, label %32

31:                                               ; preds = %24
  store i1 false, ptr %3, align 1
  br label %56

32:                                               ; preds = %24
  call void @llvm.lifetime.start.p0(i64 8, ptr %6) #13
  store i64 0, ptr %6, align 8, !tbaa !45
  br label %33

33:                                               ; preds = %50, %32
  %34 = load i64, ptr %6, align 8, !tbaa !45
  %35 = getelementptr inbounds nuw %"class.arrow::compute::Ordering", ptr %8, i32 0, i32 0
  %36 = call noundef i64 @_ZNKSt6vectorIN5arrow7compute7SortKeyESaIS2_EE4sizeEv(ptr noundef nonnull align 8 dereferenceable(24) %35) #13
  %37 = icmp ult i64 %34, %36
  br i1 %37, label %39, label %38

38:                                               ; preds = %33
  store i32 2, ptr %7, align 4
  br label %53

39:                                               ; preds = %33
  %40 = getelementptr inbounds nuw %"class.arrow::compute::Ordering", ptr %8, i32 0, i32 0
  %41 = load i64, ptr %6, align 8, !tbaa !45
  %42 = call noundef nonnull align 8 dereferenceable(44) ptr @_ZNKSt6vectorIN5arrow7compute7SortKeyESaIS2_EEixEm(ptr noundef nonnull align 8 dereferenceable(24) %40, i64 noundef %41) #13
  %43 = load ptr, ptr %5, align 8, !tbaa !32
  %44 = getelementptr inbounds nuw %"class.arrow::compute::Ordering", ptr %43, i32 0, i32 0
  %45 = load i64, ptr %6, align 8, !tbaa !45
  %46 = call noundef nonnull align 8 dereferenceable(44) ptr @_ZNKSt6vectorIN5arrow7compute7SortKeyESaIS2_EEixEm(ptr noundef nonnull align 8 dereferenceable(24) %44, i64 noundef %45) #13
  %47 = call noundef zeroext i1 @_ZN5arrow4utilneERKNS_7compute7SortKeyES4_(ptr noundef nonnull align 8 dereferenceable(44) %42, ptr noundef nonnull align 8 dereferenceable(44) %46)
  br i1 %47, label %48, label %49

48:                                               ; preds = %39
  store i1 false, ptr %3, align 1
  store i32 1, ptr %7, align 4
  br label %53

49:                                               ; preds = %39
  br label %50

50:                                               ; preds = %49
  %51 = load i64, ptr %6, align 8, !tbaa !45
  %52 = add i64 %51, 1
  store i64 %52, ptr %6, align 8, !tbaa !45
  br label %33, !llvm.loop !47

53:                                               ; preds = %48, %38
  call void @llvm.lifetime.end.p0(i64 8, ptr %6) #13
  %54 = load i32, ptr %7, align 4
  switch i32 %54, label %58 [
    i32 2, label %55
    i32 1, label %56
  ]

55:                                               ; preds = %53
  store i1 true, ptr %3, align 1
  br label %56

56:                                               ; preds = %55, %53, %31, %23, %11
  %57 = load i1, ptr %3, align 1
  ret i1 %57

58:                                               ; preds = %53
  unreachable
}