; Function Attrs: mustprogress uwtable
define noundef zeroext i1 @_ZNK5arrow7compute8Ordering12IsSuborderOfERKS1_(ptr noundef nonnull readonly align 8 captures(none) dereferenceable(29) %0, ptr noundef nonnull readonly align 8 captures(none) dereferenceable(29) %1) local_unnamed_addr #0 align 2 {
  %3 = alloca i8, align 1
  %4 = alloca %class.anon, align 8
  %5 = load ptr, ptr %0, align 8, !tbaa !57
  %6 = getelementptr inbounds nuw i8, ptr %0, i64 8
  %7 = load ptr, ptr %6, align 8, !tbaa !57
  %8 = icmp eq ptr %5, %7
  br i1 %8, label %9, label %14

9:                                                ; preds = %2
  %10 = getelementptr inbounds nuw i8, ptr %0, i64 28
  %11 = load i8, ptr %10, align 4, !tbaa !59, !range !12, !noundef !13
  %12 = trunc nuw i8 %11 to i1
  %13 = xor i1 %12, true
  br label %.loopexit

14:                                               ; preds = %2
  %15 = getelementptr inbounds nuw i8, ptr %0, i64 24
  %16 = load i32, ptr %15, align 8, !tbaa !66
  %17 = getelementptr inbounds nuw i8, ptr %1, i64 24
  %18 = load i32, ptr %17, align 8, !tbaa !66
  %.not = icmp eq i32 %16, %18
  br i1 %.not, label %19, label %.loopexit

19:                                               ; preds = %14
  %20 = ptrtoint ptr %7 to i64
  %21 = ptrtoint ptr %5 to i64
  %22 = sub i64 %20, %21
  %23 = getelementptr inbounds nuw i8, ptr %1, i64 8
  %24 = load ptr, ptr %23, align 8, !tbaa !67
  %25 = load ptr, ptr %1, align 8, !tbaa !68
  %26 = ptrtoint ptr %24 to i64
  %27 = ptrtoint ptr %25 to i64
  %28 = sub i64 %26, %27
  %29 = icmp ugt i64 %22, %28
  br i1 %29, label %.loopexit, label %.lr.ph

.lr.ph:                                           ; preds = %19
  %30 = getelementptr inbounds nuw i8, ptr %4, i64 8
  br label %39

31:                                               ; preds = %39
  %32 = add nuw i64 %.0913, 1
  %33 = load ptr, ptr %6, align 8, !tbaa !67
  %34 = load ptr, ptr %0, align 8, !tbaa !68
  %35 = ptrtoint ptr %33 to i64
  %36 = ptrtoint ptr %34 to i64
  %37 = sub i64 %35, %36
  %38 = sdiv exact i64 %37, 48
  %.not16 = icmp ult i64 %32, %38
  br i1 %.not16, label %39, label %.loopexit, !llvm.loop !69

39:                                               ; preds = %.lr.ph, %31
  %40 = phi ptr [ %5, %.lr.ph ], [ %34, %31 ]
  %.0913 = phi i64 [ 0, %.lr.ph ], [ %32, %31 ]
  %41 = getelementptr inbounds nuw %"class.arrow::compute::SortKey", ptr %40, i64 %.0913
  %42 = load ptr, ptr %1, align 8, !tbaa !68
  %43 = getelementptr inbounds nuw %"class.arrow::compute::SortKey", ptr %42, i64 %.0913
  call void @llvm.lifetime.start.p0(i64 1, ptr nonnull %3) #10
  store i8 1, ptr %3, align 1, !tbaa !3
  call void @llvm.lifetime.start.p0(i64 16, ptr nonnull %4) #10
  store ptr %3, ptr %4, align 8, !tbaa !7
  store ptr %41, ptr %30, align 8, !tbaa !10
  call void @_ZSt10__do_visitINSt8__detail9__variant20__variant_idx_cookieEZSteqIJN5arrow9FieldPathENSt7__cxx1112basic_stringIcSt11char_traitsIcESaIcEEESt6vectorINS4_8FieldRefESaISD_EEEEbRKSt7variantIJDpT_EESL_EUlOT_T0_E_JRKSG_IJS5_SB_SF_EEEEDcOSO_DpOT1_(ptr noundef nonnull align 8 dereferenceable(16) %4, ptr noundef nonnull align 8 dereferenceable(44) %43)
  call void @llvm.lifetime.end.p0(i64 16, ptr nonnull %4) #10
  %44 = load i8, ptr %3, align 1, !tbaa !3, !range !12, !noundef !13
  %45 = trunc nuw i8 %44 to i1
  call void @llvm.lifetime.end.p0(i64 1, ptr nonnull %3) #10
  %46 = getelementptr inbounds nuw i8, ptr %41, i64 40
  %47 = load i32, ptr %46, align 8
  %48 = getelementptr inbounds nuw i8, ptr %43, i64 40
  %49 = load i32, ptr %48, align 8
  %50 = icmp eq i32 %47, %49
  %.not12 = select i1 %45, i1 %50, i1 false
  br i1 %.not12, label %31, label %.loopexit

.loopexit:                                        ; preds = %39, %31, %19, %14, %9
  %.010 = phi i1 [ %13, %9 ], [ false, %14 ], [ false, %19 ], [ %.not12, %31 ], [ %.not12, %39 ]
  ret i1 %.010
}